; Function Attrs: mustprogress nofree norecurse nosync nounwind willreturn memory(argmem: read) uwtable
define dso_local noundef zeroext i1 @_ZNK5clang6Parser17isGNUAsmQualifierERKNS_5TokenE(ptr nocapture noundef nonnull readnone align 8 dereferenceable(2936) %0, ptr nocapture noundef nonnull readonly align 8 dereferenceable(20) %1) local_unnamed_addr #3 align 2 {
  %3 = getelementptr inbounds nuw i8, ptr %1, i64 16
  %4 = load i16, ptr %3, align 8
  switch i16 %4, label %5 [
    i16 110, label %_ZNK5clang6Parser18getGNUAsmQualifierERKNS_5TokenE.exit
    i16 156, label %_ZNK5clang6Parser18getGNUAsmQualifierERKNS_5TokenE.exit
    i16 91, label %_ZNK5clang6Parser18getGNUAsmQualifierERKNS_5TokenE.exit
  ]

5:                                                ; preds = %2
  br label %_ZNK5clang6Parser18getGNUAsmQualifierERKNS_5TokenE.exit

_ZNK5clang6Parser18getGNUAsmQualifierERKNS_5TokenE.exit: ; preds = %2, %2, %2, %5
  %6 = phi i1 [ false, %5 ], [ true, %2 ], [ true, %2 ], [ true, %2 ]
  ret i1 %6
}